target datalayout = "e-m:e-p270:32:32-p271:32:32-p272:64:64-i64:64-i128:128-f80:128-n8:16:32:64-S128"
target triple = "x86_64-unknown-linux-gnu"

; Function Attrs: mustprogress nounwind uwtable
define internal noundef i32 @_ZN6google8protobuf2io12_GLOBAL__N_110DigitValueEc(i8 noundef signext %digit) #4 {
entry:
  %digit.addr = alloca i8, align 1
  store i8 %digit, ptr %digit.addr, align 1
  %0 = load i8, ptr %digit.addr, align 1
  %conv = sext i8 %0 to i32
  %and = and i32 %conv, 255
  %idxprom = sext i32 %and to i64
  %arrayidx = getelementptr inbounds [256 x i8], ptr @_ZN6google8protobuf2io12_GLOBAL__N_111kAsciiToIntE, i64 0, i64 %idxprom
  %1 = load i8, ptr %arrayidx, align 1
  %conv1 = sext i8 %1 to i32
  ret i32 %conv1
}

; Function Attrs: mustprogress uwtable
define noundef zeroext i1 @_ZN6google8protobuf2io9Tokenizer12ParseIntegerERKNSt7__cxx1112basic_stringIcSt11char_traitsIcESaIcEEEmPm(ptr noundef nonnull align 8 dereferenceable(32) %text, i64 noundef %max_value, ptr noundef %output) #6 align 2 {
entry:
  %retval = alloca i1, align 1
  %text.addr = alloca ptr, align 8
  %max_value.addr = alloca i64, align 8
  %output.addr = alloca ptr, align 8
  %ptr = alloca ptr, align 8
  %base = alloca i32, align 4
  %overflow_if_mul_base = alloca i64, align 8
  %result = alloca i64, align 8
  %digit = alloca i32, align 4
  %digit21 = alloca i32, align 4
  store ptr %text, ptr %text.addr, align 8
  store i64 %max_value, ptr %max_value.addr, align 8
  store ptr %output, ptr %output.addr, align 8
  %0 = load ptr, ptr %text.addr, align 8
  %call = call noundef ptr @_ZNKSt7__cxx1112basic_stringIcSt11char_traitsIcESaIcEE5c_strEv(ptr noundef nonnull align 8 dereferenceable(32) %0) #3
  store ptr %call, ptr %ptr, align 8
  store i32 10, ptr %base, align 4
  store i64 1844674407370955162, ptr %overflow_if_mul_base, align 8
  %1 = load ptr, ptr %ptr, align 8
  %arrayidx = getelementptr inbounds i8, ptr %1, i64 0
  %2 = load i8, ptr %arrayidx, align 1
  %conv = sext i8 %2 to i32
  %cmp = icmp eq i32 %conv, 48
  br i1 %cmp, label %if.then, label %if.end8

if.then:                                          ; preds = %entry
  %3 = load ptr, ptr %ptr, align 8
  %arrayidx1 = getelementptr inbounds i8, ptr %3, i64 1
  %4 = load i8, ptr %arrayidx1, align 1
  %conv2 = sext i8 %4 to i32
  %cmp3 = icmp eq i32 %conv2, 120
  br i1 %cmp3, label %if.then7, label %lor.lhs.false

lor.lhs.false:                                    ; preds = %if.then
  %5 = load ptr, ptr %ptr, align 8
  %arrayidx4 = getelementptr inbounds i8, ptr %5, i64 1
  %6 = load i8, ptr %arrayidx4, align 1
  %conv5 = sext i8 %6 to i32
  %cmp6 = icmp eq i32 %conv5, 88
  br i1 %cmp6, label %if.then7, label %if.else

if.then7:                                         ; preds = %lor.lhs.false, %if.then
  store i32 16, ptr %base, align 4
  store i64 1152921504606846976, ptr %overflow_if_mul_base, align 8
  %7 = load ptr, ptr %ptr, align 8
  %add.ptr = getelementptr inbounds i8, ptr %7, i64 2
  store ptr %add.ptr, ptr %ptr, align 8
  br label %if.end

if.else:                                          ; preds = %lor.lhs.false
  store i32 8, ptr %base, align 4
  store i64 2305843009213693952, ptr %overflow_if_mul_base, align 8
  br label %if.end

if.end:                                           ; preds = %if.else, %if.then7
  br label %if.end8

if.end8:                                          ; preds = %if.end, %entry
  store i64 0, ptr %result, align 8
  br label %while.cond

while.cond:                                       ; preds = %if.end18, %if.end8
  %8 = load ptr, ptr %ptr, align 8
  %9 = load i8, ptr %8, align 1
  %conv9 = sext i8 %9 to i32
  %cmp10 = icmp ne i32 %conv9, 0
  br i1 %cmp10, label %while.body, label %while.end

while.body:                                       ; preds = %while.cond
  %10 = load ptr, ptr %ptr, align 8
  %incdec.ptr = getelementptr inbounds i8, ptr %10, i32 1
  store ptr %incdec.ptr, ptr %ptr, align 8
  %11 = load i8, ptr %10, align 1
  %call11 = call noundef i32 @_ZN6google8protobuf2io12_GLOBAL__N_110DigitValueEc(i8 noundef signext %11)
  store i32 %call11, ptr %digit, align 4
  %12 = load i32, ptr %digit, align 4
  %13 = load i32, ptr %base, align 4
  %cmp12 = icmp sge i32 %12, %13
  br i1 %cmp12, label %if.then13, label %if.end14

if.then13:                                        ; preds = %while.body
  store i1 false, ptr %retval, align 1
  br label %return

if.end14:                                         ; preds = %while.body
  %14 = load i32, ptr %digit, align 4
  %cmp15 = icmp ne i32 %14, 0
  br i1 %cmp15, label %if.then16, label %if.end18

if.then16:                                        ; preds = %if.end14
  %15 = load i32, ptr %digit, align 4
  %conv17 = sext i32 %15 to i64
  store i64 %conv17, ptr %result, align 8
  br label %while.end

if.end18:                                         ; preds = %if.end14
  br label %while.cond, !llvm.loop !20

while.end:                                        ; preds = %if.then16, %while.cond
  br label %for.cond

for.cond:                                         ; preds = %for.inc, %while.end
  %16 = load ptr, ptr %ptr, align 8
  %17 = load i8, ptr %16, align 1
  %conv19 = sext i8 %17 to i32
  %cmp20 = icmp ne i32 %conv19, 0
  br i1 %cmp20, label %for.body, label %for.end

for.body:                                         ; preds = %for.cond
  %18 = load ptr, ptr %ptr, align 8
  %19 = load i8, ptr %18, align 1
  %call22 = call noundef i32 @_ZN6google8protobuf2io12_GLOBAL__N_110DigitValueEc(i8 noundef signext %19)
  store i32 %call22, ptr %digit21, align 4
  %20 = load i32, ptr %digit21, align 4
  %cmp23 = icmp slt i32 %20, 0
  br i1 %cmp23, label %if.then26, label %lor.lhs.false24

lor.lhs.false24:                                  ; preds = %for.body
  %21 = load i32, ptr %digit21, align 4
  %22 = load i32, ptr %base, align 4
  %cmp25 = icmp sge i32 %21, %22
  br i1 %cmp25, label %if.then26, label %if.end27

if.then26:                                        ; preds = %lor.lhs.false24, %for.body
  store i1 false, ptr %retval, align 1
  br label %return

if.end27:                                         ; preds = %lor.lhs.false24
  %23 = load i64, ptr %result, align 8
  %24 = load i64, ptr %overflow_if_mul_base, align 8
  %cmp28 = icmp uge i64 %23, %24
  br i1 %cmp28, label %if.then29, label %if.end30

if.then29:                                        ; preds = %if.end27
  store i1 false, ptr %retval, align 1
  br label %return

if.end30:                                         ; preds = %if.end27
  %25 = load i64, ptr %result, align 8
  %26 = load i32, ptr %base, align 4
  %conv31 = sext i32 %26 to i64
  %mul = mul i64 %25, %conv31
  %27 = load i32, ptr %digit21, align 4
  %conv32 = sext i32 %27 to i64
  %add = add i64 %mul, %conv32
  store i64 %add, ptr %result, align 8
  %28 = load i64, ptr %result, align 8
  %29 = load i32, ptr %base, align 4
  %conv33 = sext i32 %29 to i64
  %cmp34 = icmp ult i64 %28, %conv33
  br i1 %cmp34, label %if.then35, label %if.end36

if.then35:                                        ; preds = %if.end30
  store i1 false, ptr %retval, align 1
  br label %return

if.end36:                                         ; preds = %if.end30
  br label %for.inc

for.inc:                                          ; preds = %if.end36
  %30 = load ptr, ptr %ptr, align 8
  %incdec.ptr37 = getelementptr inbounds i8, ptr %30, i32 1
  store ptr %incdec.ptr37, ptr %ptr, align 8
  br label %for.cond, !llvm.loop !21

for.end:                                          ; preds = %for.cond
  %31 = load i64, ptr %result, align 8
  %32 = load i64, ptr %max_value.addr, align 8
  %cmp38 = icmp ugt i64 %31, %32
  br i1 %cmp38, label %if.then39, label %if.end40

if.then39:                                        ; preds = %for.end
  store i1 false, ptr %retval, align 1
  br label %return

if.end40:                                         ; preds = %for.end
  %33 = load i64, ptr %result, align 8
  %34 = load ptr, ptr %output.addr, align 8
  store i64 %33, ptr %34, align 8
  store i1 true, ptr %retval, align 1
  br label %return

return:                                           ; preds = %if.end40, %if.then39, %if.then35, %if.then29, %if.then26, %if.then13
  %35 = load i1, ptr %retval, align 1
  ret i1 %35
}