; Function Attrs: mustprogress nounwind uwtable
define noundef zeroext i1 @_ZN6google8protobuf2io9Tokenizer12ParseIntegerERKNSt7__cxx1112basic_stringIcSt11char_traitsIcESaIcEEEmPm(ptr noundef nonnull align 8 dereferenceable(32) %text, i64 noundef %max_value, ptr noundef writeonly captures(none) %output) local_unnamed_addr #7 align 2 {
entry:
  %call = tail call noundef ptr @_ZNKSt7__cxx1112basic_stringIcSt11char_traitsIcESaIcEE5c_strEv(ptr noundef nonnull align 8 dereferenceable(32) %text) #23
  %0 = load i8, ptr %call, align 1
  %cmp = icmp eq i8 %0, 48
  br i1 %cmp, label %if.then, label %if.end8

if.then:                                          ; preds = %entry
  %arrayidx1 = getelementptr inbounds nuw i8, ptr %call, i64 1
  %1 = load i8, ptr %arrayidx1, align 1
  switch i8 %1, label %if.end8 [
    i8 120, label %if.then7
    i8 88, label %if.then7
  ]

if.then7:                                         ; preds = %if.then, %if.then
  %add.ptr = getelementptr inbounds nuw i8, ptr %call, i64 2
  br label %if.end8

if.end8:                                          ; preds = %if.then, %if.then7, %entry
  %base.0 = phi i32 [ 16, %if.then7 ], [ 10, %entry ], [ 8, %if.then ]
  %overflow_if_mul_base.0 = phi i64 [ 1152921504606846976, %if.then7 ], [ 1844674407370955162, %entry ], [ 2305843009213693952, %if.then ]
  %ptr.0 = phi ptr [ %add.ptr, %if.then7 ], [ %call, %entry ], [ %call, %if.then ]
  br label %while.cond

while.cond:                                       ; preds = %if.end14, %if.end8
  %ptr.1 = phi ptr [ %ptr.0, %if.end8 ], [ %incdec.ptr, %if.end14 ]
  %2 = load i8, ptr %ptr.1, align 1
  %cmp10.not = icmp eq i8 %2, 0
  br i1 %cmp10.not, label %if.end40, label %while.body

while.body:                                       ; preds = %while.cond
  %idxprom.i = zext i8 %2 to i64
  %arrayidx.i = getelementptr inbounds nuw [256 x i8], ptr @_ZN6google8protobuf2io12_GLOBAL__N_111kAsciiToIntE, i64 0, i64 %idxprom.i
  %3 = load i8, ptr %arrayidx.i, align 1
  %conv1.i = sext i8 %3 to i32
  %cmp12.not = icmp sgt i32 %base.0, %conv1.i
  br i1 %cmp12.not, label %if.end14, label %return

if.end14:                                         ; preds = %while.body
  %incdec.ptr = getelementptr inbounds nuw i8, ptr %ptr.1, i64 1
  %cmp15.not = icmp eq i8 %2, 48
  br i1 %cmp15.not, label %while.cond, label %while.end, !llvm.loop !23

while.end:                                        ; preds = %if.end14
  %conv17 = sext i8 %3 to i64
  %.pre = load i8, ptr %incdec.ptr, align 1
  %cmp20.not30 = icmp eq i8 %.pre, 0
  br i1 %cmp20.not30, label %for.end, label %for.body.lr.ph

for.body.lr.ph:                                   ; preds = %while.end
  %conv31 = zext nneg i32 %base.0 to i64
  br label %for.body

for.cond:                                         ; preds = %if.end30
  %incdec.ptr37 = getelementptr inbounds nuw i8, ptr %ptr.332, i64 1
  %4 = load i8, ptr %incdec.ptr37, align 1
  %cmp20.not = icmp eq i8 %4, 0
  br i1 %cmp20.not, label %for.end, label %for.body, !llvm.loop !24

for.body:                                         ; preds = %for.body.lr.ph, %for.cond
  %5 = phi i8 [ %.pre, %for.body.lr.ph ], [ %4, %for.cond ]
  %ptr.332 = phi ptr [ %incdec.ptr, %for.body.lr.ph ], [ %incdec.ptr37, %for.cond ]
  %result.131 = phi i64 [ %conv17, %for.body.lr.ph ], [ %add, %for.cond ]
  %idxprom.i21 = zext i8 %5 to i64
  %arrayidx.i22 = getelementptr inbounds nuw [256 x i8], ptr @_ZN6google8protobuf2io12_GLOBAL__N_111kAsciiToIntE, i64 0, i64 %idxprom.i21
  %6 = load i8, ptr %arrayidx.i22, align 1
  %conv1.i23 = sext i8 %6 to i32
  %cmp25.not = icmp sgt i32 %base.0, %conv1.i23
  %cmp28.not = icmp ult i64 %result.131, %overflow_if_mul_base.0
  %or.cond20 = and i1 %cmp28.not, %cmp25.not
  br i1 %or.cond20, label %if.end30, label %return

if.end30:                                         ; preds = %for.body
  %mul = mul i64 %result.131, %conv31
  %conv32 = zext nneg i32 %conv1.i23 to i64
  %add = add i64 %mul, %conv32
  %cmp34 = icmp ult i64 %add, %conv31
  br i1 %cmp34, label %return, label %for.cond

for.end:                                          ; preds = %for.cond, %while.end
  %result.1.lcssa = phi i64 [ %conv17, %while.end ], [ %add, %for.cond ]
  %cmp38 = icmp ugt i64 %result.1.lcssa, %max_value
  br i1 %cmp38, label %return, label %if.end40

if.end40:                                         ; preds = %while.cond, %for.end
  %result.1.lcssa42 = phi i64 [ %result.1.lcssa, %for.end ], [ 0, %while.cond ]
  store i64 %result.1.lcssa42, ptr %output, align 8
  br label %return

return:                                           ; preds = %while.body, %if.end30, %for.body, %for.end, %if.end40
  %retval.0 = phi i1 [ true, %if.end40 ], [ false, %for.end ], [ false, %for.body ], [ false, %if.end30 ], [ false, %while.body ]
  ret i1 %retval.0
}